	.cpu cortex-m4
	.eabi_attribute 27, 1
	.eabi_attribute 28, 1
	.eabi_attribute 20, 1
	.eabi_attribute 21, 1
	.eabi_attribute 23, 3
	.eabi_attribute 24, 1
	.eabi_attribute 25, 1
	.eabi_attribute 26, 1
	.eabi_attribute 30, 4
	.eabi_attribute 34, 1
	.eabi_attribute 18, 4
	.file	"bmp2.c"
	.text
.Ltext0:
	.section	.text.null_ptr_check,"ax",%progbits
	.align	1
	.syntax unified
	.thumb
	.thumb_func
	.fpu fpv4-sp-d16
	.type	null_ptr_check, %function
null_ptr_check:
.LVL0:
.LFB12:
	.file 1 "C:\\Users\\joeyp\\Desktop\\Engineering\\Cuitt\\Development\\nRF5_SDK_17.0.0_9d13099\\examples\\ble_peripheral\\ble_app_buttonless_dfu\\pca10040\\s132\\ses\\bmp2.c"
	.loc 1 583 1 view -0
	@ args = 0, pretend = 0, frame = 0
	@ frame_needed = 0, uses_anonymous_args = 0
	@ link register save eliminated.
	.loc 1 584 5 view .LVU1
	.loc 1 586 5 view .LVU2
	.loc 1 586 8 is_stmt 0 view .LVU3
	cbz	r0, .L5
	.loc 1 586 23 discriminator 1 view .LVU4
	ldr	r3, [r0, #12]
	cbz	r3, .L5
	.loc 1 586 46 discriminator 2 view .LVU5
	ldr	r3, [r0, #16]
	cbz	r3, .L5
	.loc 1 586 70 discriminator 3 view .LVU6
	ldr	r0, [r0, #20]
.LVL1:
	.loc 1 586 70 discriminator 3 view .LVU7
	clz	r0, r0
	lsrs	r0, r0, #5
	rsbs	r0, r0, #0
	bx	lr
.LVL2:
.L5:
	.loc 1 589 14 view .LVU8
	mov	r0, #-1
.LVL3:
	.loc 1 596 5 is_stmt 1 view .LVU9
	.loc 1 597 1 is_stmt 0 view .LVU10
	bx	lr
.LFE12:
	.size	null_ptr_check, .-null_ptr_check
	.section	.text.bmp2_get_regs,"ax",%progbits
	.align	1
	.global	bmp2_get_regs
	.syntax unified
	.thumb
	.thumb_func
	.fpu fpv4-sp-d16
	.type	bmp2_get_regs, %function
bmp2_get_regs:
.LVL4:
.LFB1:
	.loc 1 256 1 is_stmt 1 view -0
	@ args = 0, pretend = 0, frame = 0
	@ frame_needed = 0, uses_anonymous_args = 0
	.loc 1 257 5 view .LVU12
	.loc 1 259 5 view .LVU13
	.loc 1 256 1 is_stmt 0 view .LVU14
	push	{r4, r5, r6, lr}
.LCFI0:
	.loc 1 256 1 view .LVU15
	mov	r5, r0
	.loc 1 259 12 view .LVU16
	mov	r0, r3
.LVL5:
	.loc 1 256 1 view .LVU17
	mov	r4, r3
	.loc 1 259 12 view .LVU18
	bl	null_ptr_check
.LVL6:
	.loc 1 261 5 is_stmt 1 view .LVU19
	.loc 1 261 8 is_stmt 0 view .LVU20
	cbnz	r0, .L10
	.loc 1 261 27 discriminator 1 view .LVU21
	cbz	r1, .L10
	.loc 1 264 9 is_stmt 1 view .LVU22
	.loc 1 264 12 is_stmt 0 view .LVU23
	ldrb	r3, [r4, #1]	@ zero_extendqisi2
	cbnz	r3, .L8
	.loc 1 266 13 is_stmt 1 view .LVU24
	.loc 1 266 22 is_stmt 0 view .LVU25
	orr	r5, r5, #128
.LVL7:
.L8:
	.loc 1 269 9 is_stmt 1 view .LVU26
	.loc 1 269 26 is_stmt 0 view .LVU27
	ldr	r6, [r4, #12]
	ldr	r3, [r4, #4]
	mov	r0, r5
.LVL8:
	.loc 1 269 26 view .LVU28
	blx	r6
.LVL9:
	.loc 1 272 12 view .LVU29
	cmp	r0, #0
	.loc 1 269 24 view .LVU30
	strb	r0, [r4, #8]
	.loc 1 272 9 is_stmt 1 view .LVU31
	.loc 1 274 18 is_stmt 0 view .LVU32
	it	ne
	mvnne	r0, #1
.LVL10:
.L7:
	.loc 1 282 5 is_stmt 1 view .LVU33
	.loc 1 283 1 is_stmt 0 view .LVU34
	pop	{r4, r5, r6, pc}
.LVL11:
.L10:
	.loc 1 279 14 view .LVU35
	mov	r0, #-1
.LVL12:
	.loc 1 279 14 view .LVU36
	b	.L7
.LFE1:
	.size	bmp2_get_regs, .-bmp2_get_regs
	.section	.text.bmp2_init,"ax",%progbits
	.align	1
	.global	bmp2_init
	.syntax unified
	.thumb
	.thumb_func
	.fpu fpv4-sp-d16
	.type	bmp2_init, %function
bmp2_init:
.LVL13:
.LFB0:
	.loc 1 225 1 is_stmt 1 view -0
	@ args = 0, pretend = 0, frame = 32
	@ frame_needed = 0, uses_anonymous_args = 0
	.loc 1 226 5 view .LVU38
	.loc 1 228 5 view .LVU39
	.loc 1 225 1 is_stmt 0 view .LVU40
	push	{r4, lr}
.LCFI1:
	sub	sp, sp, #32
.LCFI2:
	.loc 1 225 1 view .LVU41
	mov	r4, r0
	.loc 1 228 12 view .LVU42
	bl	null_ptr_check
.LVL14:
	.loc 1 230 5 is_stmt 1 view .LVU43
	.loc 1 230 8 is_stmt 0 view .LVU44
	cbnz	r0, .L14
	.loc 1 232 9 is_stmt 1 view .LVU45
	.loc 1 232 16 is_stmt 0 view .LVU46
	mov	r3, r4
	movs	r2, #1
	mov	r1, r4
	movs	r0, #208
.LVL15:
	.loc 1 232 16 view .LVU47
	bl	bmp2_get_regs
.LVL16:
	.loc 1 235 9 is_stmt 1 view .LVU48
	.loc 1 235 12 is_stmt 0 view .LVU49
	cbnz	r0, .L14
	.loc 1 237 13 is_stmt 1 view .LVU50
	.loc 1 237 16 is_stmt 0 view .LVU51
	ldrb	r3, [r4]	@ zero_extendqisi2
	cmp	r3, #88
	bne	.L16
	.loc 1 239 17 is_stmt 1 view .LVU52
.LVL17:
.LBB4:
.LBI4:
	.loc 1 618 15 view .LVU53
.LBB5:
	.loc 1 620 5 view .LVU54
	.loc 1 621 5 view .LVU55
	.loc 1 621 13 is_stmt 0 view .LVU56
	mov	r1, r0
	str	r0, [sp, #4]
	movs	r2, #21
	add	r0, sp, #8
.LVL18:
	.loc 1 621 13 view .LVU57
	bl	memset
.LVL19:
	.loc 1 623 5 is_stmt 1 view .LVU58
	.loc 1 623 12 is_stmt 0 view .LVU59
	mov	r3, r4
	movs	r2, #25
	add	r1, sp, #4
	movs	r0, #136
	bl	bmp2_get_regs
.LVL20:
	.loc 1 625 5 is_stmt 1 view .LVU60
	.loc 1 625 8 is_stmt 0 view .LVU61
	cbnz	r0, .L14
	.loc 1 627 9 is_stmt 1 view .LVU62
	.loc 1 628 9 view .LVU63
	.loc 1 627 33 is_stmt 0 view .LVU64
	ldr	r3, [sp, #4]
	str	r3, [r4, #28]
	.loc 1 629 9 is_stmt 1 view .LVU65
	.loc 1 630 9 view .LVU66
	.loc 1 629 33 is_stmt 0 view .LVU67
	ldr	r3, [sp, #8]
	str	r3, [r4, #32]
	.loc 1 631 9 is_stmt 1 view .LVU68
	.loc 1 632 9 view .LVU69
	.loc 1 631 33 is_stmt 0 view .LVU70
	ldr	r3, [sp, #12]
	str	r3, [r4, #36]
	.loc 1 633 9 is_stmt 1 view .LVU71
	.loc 1 634 9 view .LVU72
	.loc 1 633 33 is_stmt 0 view .LVU73
	ldr	r3, [sp, #16]
	str	r3, [r4, #40]
	.loc 1 635 9 is_stmt 1 view .LVU74
	.loc 1 636 9 view .LVU75
	.loc 1 635 33 is_stmt 0 view .LVU76
	ldr	r3, [sp, #20]
	str	r3, [r4, #44]
	.loc 1 637 9 is_stmt 1 view .LVU77
	.loc 1 638 9 view .LVU78
	.loc 1 637 33 is_stmt 0 view .LVU79
	ldr	r3, [sp, #24]
	str	r3, [r4, #48]
	.loc 1 639 9 is_stmt 1 view .LVU80
	.loc 1 639 34 is_stmt 0 view .LVU81
	ldrb	r3, [sp, #28]	@ zero_extendqisi2
	strb	r3, [r4, #52]
	.loc 1 642 5 is_stmt 1 view .LVU82
.LVL21:
.L14:
	.loc 1 642 5 is_stmt 0 view .LVU83
.LBE5:
.LBE4:
	.loc 1 248 5 is_stmt 1 view .LVU84
	.loc 1 249 1 is_stmt 0 view .LVU85
	add	sp, sp, #32
.LCFI3:
	@ sp needed
	pop	{r4, pc}
.LVL22:
.L16:
.LCFI4:
	.loc 1 243 22 view .LVU86
	mvn	r0, #3
.LVL23:
	.loc 1 243 22 view .LVU87
	b	.L14
.LFE0:
	.size	bmp2_init, .-bmp2_init
	.section	.text.bmp2_set_regs,"ax",%progbits
	.align	1
	.global	bmp2_set_regs
	.syntax unified
	.thumb
	.thumb_func
	.fpu fpv4-sp-d16
	.type	bmp2_set_regs, %function
bmp2_set_regs:
.LVL24:
.LFB2:
	.loc 1 290 1 is_stmt 1 view -0
	@ args = 0, pretend = 0, frame = 8
	@ frame_needed = 0, uses_anonymous_args = 0
	.loc 1 291 5 view .LVU89
	.loc 1 292 5 view .LVU90
	.loc 1 293 5 view .LVU91
	.loc 1 294 5 view .LVU92
	.loc 1 296 5 view .LVU93
	.loc 1 290 1 is_stmt 0 view .LVU94
	push	{r0, r1, r2, r4, r5, r6, r7, lr}
.LCFI5:
	cmp	r2, #4
	.loc 1 290 1 view .LVU95
	mov	r5, r0
	.loc 1 301 12 view .LVU96
	mov	r0, r3
.LVL25:
	.loc 1 290 1 view .LVU97
	mov	r6, r2
	mov	r4, r3
	it	cs
	movcs	r2, #4
.LVL26:
	.loc 1 301 5 is_stmt 1 view .LVU98
	.loc 1 301 12 is_stmt 0 view .LVU99
	bl	null_ptr_check
.LVL27:
	.loc 1 303 5 is_stmt 1 view .LVU100
	.loc 1 303 8 is_stmt 0 view .LVU101
	cbnz	r0, .L27
	.loc 1 303 27 discriminator 1 view .LVU102
	cbz	r5, .L27
	.loc 1 303 49 discriminator 2 view .LVU103
	cbz	r1, .L27
	.loc 1 305 9 is_stmt 1 view .LVU104
	.loc 1 305 12 is_stmt 0 view .LVU105
	cbz	r6, .L28
	.loc 1 307 13 is_stmt 1 view .LVU106
	.loc 1 307 26 is_stmt 0 view .LVU107
	ldrb	r3, [r1]	@ zero_extendqisi2
	strb	r3, [sp]
	.loc 1 310 13 is_stmt 1 view .LVU108
	.loc 1 310 16 is_stmt 0 view .LVU109
	ldrb	r3, [r4, #1]	@ zero_extendqisi2
	cbz	r3, .L19
.LVL28:
.L23:
	.loc 1 322 13 is_stmt 1 view .LVU110
	.loc 1 322 16 is_stmt 0 view .LVU111
	cmp	r6, #1
	bls	.L20
	mov	r0, sp
.LBB8:
.LBB9:
	.loc 1 607 16 view .LVU112
	movs	r3, #1
.L21:
.LVL29:
	.loc 1 607 21 is_stmt 1 view .LVU113
	.loc 1 607 5 is_stmt 0 view .LVU114
	cmp	r2, r3
	bhi	.L24
.LVL30:
	.loc 1 607 5 view .LVU115
.LBE9:
.LBE8:
	.loc 1 326 17 is_stmt 1 view .LVU116
	.loc 1 326 34 is_stmt 0 view .LVU117
	lsls	r2, r2, #1
.LVL31:
	.loc 1 326 26 view .LVU118
	subs	r2, r2, #1
.LVL32:
.L20:
	.loc 1 333 13 is_stmt 1 view .LVU119
	.loc 1 333 30 is_stmt 0 view .LVU120
	ldr	r6, [r4, #16]
	ldr	r3, [r4, #4]
	ldrb	r0, [r5]	@ zero_extendqisi2
	mov	r1, sp
.LVL33:
	.loc 1 333 30 view .LVU121
	blx	r6
.LVL34:
	.loc 1 338 22 view .LVU122
	cmp	r0, #0
	.loc 1 333 28 view .LVU123
	strb	r0, [r4, #8]
	.loc 1 336 13 is_stmt 1 view .LVU124
	.loc 1 338 22 is_stmt 0 view .LVU125
	it	ne
	mvnne	r0, #1
.L18:
.LVL35:
	.loc 1 351 5 is_stmt 1 view .LVU126
	.loc 1 352 1 is_stmt 0 view .LVU127
	add	sp, sp, #12
.LCFI6:
	@ sp needed
	pop	{r4, r5, r6, r7, pc}
.LVL36:
.L22:
.LCFI7:
	.loc 1 317 21 is_stmt 1 discriminator 3 view .LVU128
	.loc 1 317 69 is_stmt 0 discriminator 3 view .LVU129
	ldrb	r7, [r5, r0]	@ zero_extendqisi2
	and	r7, r7, #127
	.loc 1 317 44 discriminator 3 view .LVU130
	strb	r7, [r5, r0]
	.loc 1 315 60 is_stmt 1 discriminator 3 view .LVU131
.LVL37:
.L19:
	.loc 1 315 40 discriminator 1 view .LVU132
	uxtb	r0, r3
	.loc 1 315 17 is_stmt 0 discriminator 1 view .LVU133
	cmp	r2, r0
	add	r3, r3, #1
.LVL38:
	.loc 1 315 17 discriminator 1 view .LVU134
	bhi	.L22
	b	.L23
.LVL39:
.L24:
.LBB11:
.LBB10:
	.loc 1 609 9 is_stmt 1 view .LVU135
	.loc 1 609 36 is_stmt 0 view .LVU136
	ldrb	r6, [r5, r3]	@ zero_extendqisi2
	strb	r6, [r0, #1]
	.loc 1 610 9 is_stmt 1 view .LVU137
	.loc 1 610 30 is_stmt 0 view .LVU138
	ldrb	r6, [r1, r3]	@ zero_extendqisi2
	strb	r6, [r0, #2]!
	.loc 1 607 34 is_stmt 1 view .LVU139
	.loc 1 607 39 is_stmt 0 view .LVU140
	adds	r3, r3, #1
.LVL40:
	.loc 1 607 39 view .LVU141
	b	.L21
.LVL41:
.L27:
	.loc 1 607 39 view .LVU142
.LBE10:
.LBE11:
	.loc 1 348 14 view .LVU143
	mov	r0, #-1
.LVL42:
	.loc 1 348 14 view .LVU144
	b	.L18
.LVL43:
.L28:
	.loc 1 343 18 view .LVU145
	mvn	r0, #2
.LVL44:
	.loc 1 343 18 view .LVU146
	b	.L18
.LFE2:
	.size	bmp2_set_regs, .-bmp2_set_regs
	.section	.text.bmp2_soft_reset,"ax",%progbits
	.align	1
	.global	bmp2_soft_reset
	.syntax unified
	.thumb
	.thumb_func
	.fpu fpv4-sp-d16
	.type	bmp2_soft_reset, %function
bmp2_soft_reset:
.LVL45:
.LFB3:
	.loc 1 358 1 is_stmt 1 view -0
	@ args = 0, pretend = 0, frame = 8
	@ frame_needed = 0, uses_anonymous_args = 0
	.loc 1 359 5 view .LVU148
	.loc 1 360 5 view .LVU149
	.loc 1 358 1 is_stmt 0 view .LVU150
	push	{r0, r1, r2, lr}
.LCFI8:
	.loc 1 360 13 view .LVU151
	movs	r2, #224
	strb	r2, [sp, #6]
	.loc 1 361 5 is_stmt 1 view .LVU152
	.loc 1 361 13 is_stmt 0 view .LVU153
	movs	r2, #182
	.loc 1 358 1 view .LVU154
	mov	r3, r0
	.loc 1 361 13 view .LVU155
	strb	r2, [sp, #7]
	.loc 1 363 5 is_stmt 1 view .LVU156
	.loc 1 363 12 is_stmt 0 view .LVU157
	add	r1, sp, #7
	movs	r2, #1
	add	r0, sp, #6
.LVL46:
	.loc 1 363 12 view .LVU158
	bl	bmp2_set_regs
.LVL47:
	.loc 1 365 5 is_stmt 1 view .LVU159
	.loc 1 366 1 is_stmt 0 view .LVU160
	add	sp, sp, #12
.LCFI9:
	@ sp needed
	ldr	pc, [sp], #4
.LFE3:
	.size	bmp2_soft_reset, .-bmp2_soft_reset
	.section	.text.conf_sensor,"ax",%progbits
	.align	1
	.syntax unified
	.thumb
	.thumb_func
	.fpu fpv4-sp-d16
	.type	conf_sensor, %function
conf_sensor:
.LVL48:
.LFB15:
	.loc 1 649 1 is_stmt 1 view -0
	@ args = 0, pretend = 0, frame = 16
	@ frame_needed = 0, uses_anonymous_args = 0
	.loc 1 650 5 view .LVU162
	.loc 1 651 5 view .LVU163
	.loc 1 649 1 is_stmt 0 view .LVU164
	push	{r0, r1, r2, r3, r4, r5, r6, lr}
.LCFI10:
	.loc 1 649 1 view .LVU165
	mov	r3, r2
	.loc 1 651 13 view .LVU166
	movs	r2, #0
.LVL49:
	.loc 1 651 13 view .LVU167
	strh	r2, [sp, #8]	@ movhi
	.loc 1 652 5 is_stmt 1 view .LVU168
	.loc 1 652 13 is_stmt 0 view .LVU169
	movw	r2, #62964
	.loc 1 649 1 view .LVU170
	mov	r5, r0
	.loc 1 652 13 view .LVU171
	strh	r2, [sp, #12]	@ movhi
	.loc 1 654 5 is_stmt 1 view .LVU172
	.loc 1 654 8 is_stmt 0 view .LVU173
	mov	r6, r1
	cmp	r1, #0
	beq	.L42
	.loc 1 656 9 is_stmt 1 view .LVU174
	.loc 1 656 16 is_stmt 0 view .LVU175
	movs	r2, #2
	add	r1, sp, #8
.LVL50:
	.loc 1 656 16 view .LVU176
	movs	r0, #244
.LVL51:
	.loc 1 656 16 view .LVU177
	str	r3, [sp, #4]
	bl	bmp2_get_regs
.LVL52:
	.loc 1 658 9 is_stmt 1 view .LVU178
	.loc 1 658 12 is_stmt 0 view .LVU179
	ldr	r3, [sp, #4]
	cmp	r0, #0
	bne	.L34
	.loc 1 663 13 is_stmt 1 view .LVU180
	.loc 1 663 20 is_stmt 0 view .LVU181
	mov	r0, r3
.LVL53:
	.loc 1 663 20 view .LVU182
	bl	bmp2_soft_reset
.LVL54:
	.loc 1 665 13 is_stmt 1 view .LVU183
	.loc 1 665 16 is_stmt 0 view .LVU184
	ldr	r3, [sp, #4]
	cmp	r0, #0
	bne	.L34
	.loc 1 667 17 is_stmt 1 view .LVU185
.LVL55:
.LBB14:
.LBI14:
	.loc 1 697 13 view .LVU186
.LBB15:
	.loc 1 699 5 view .LVU187
	ldrb	r2, [r6, #3]	@ zero_extendqisi2
	cmp	r2, #4
	bhi	.L35
	tbb	[pc, r2]
.L37:
	.byte	(.L41-.L37)/2
	.byte	(.L40-.L37)/2
	.byte	(.L39-.L37)/2
	.byte	(.L38-.L37)/2
	.byte	(.L36-.L37)/2
	.p2align 1
.L41:
	.loc 1 702 13 view .LVU188
	.loc 1 703 13 view .LVU189
	.loc 1 703 27 is_stmt 0 view .LVU190
	ldrb	r2, [sp, #8]	@ zero_extendqisi2
	and	r2, r2, #3
	orr	r2, r2, #36
.L46:
	.loc 1 719 25 view .LVU191
	strb	r2, [sp, #8]
	.loc 1 720 13 is_stmt 1 view .LVU192
.L35:
.LVL56:
	.loc 1 720 13 is_stmt 0 view .LVU193
.LBE15:
.LBE14:
	.loc 1 668 17 is_stmt 1 view .LVU194
	.loc 1 669 17 view .LVU195
	.loc 1 670 17 view .LVU196
	.loc 1 668 27 is_stmt 0 view .LVU197
	ldrb	r4, [sp, #9]	@ zero_extendqisi2
	ldrb	r1, [r6, #2]	@ zero_extendqisi2
	.loc 1 672 24 view .LVU198
	str	r3, [sp, #4]
.LVL57:
	.loc 1 668 27 view .LVU199
	and	r4, r4, #31
	orr	r4, r4, r1, lsl #5
	.loc 1 669 27 view .LVU200
	ldrb	r1, [r6, #4]	@ zero_extendqisi2
	lsls	r1, r1, #2
	and	r1, r1, #28
	bic	r4, r4, #28
	orrs	r4, r4, r1
	.loc 1 670 27 view .LVU201
	ldrb	r1, [r6, #5]	@ zero_extendqisi2
	bic	r4, r4, #1
	and	r1, r1, #1
	orrs	r1, r1, r4
	.loc 1 670 25 view .LVU202
	strb	r1, [sp, #9]
	.loc 1 672 17 is_stmt 1 view .LVU203
	.loc 1 672 24 is_stmt 0 view .LVU204
	movs	r2, #2
	add	r1, sp, #8
	add	r0, sp, #12
.LVL58:
	.loc 1 672 24 view .LVU205
	bl	bmp2_set_regs
.LVL59:
	.loc 1 674 17 is_stmt 1 view .LVU206
	.loc 1 674 20 is_stmt 0 view .LVU207
	cbnz	r0, .L34
	.loc 1 674 39 discriminator 1 view .LVU208
	ldr	r3, [sp, #4]
	cbz	r5, .L34
	.loc 1 676 21 is_stmt 1 view .LVU209
	.loc 1 679 31 is_stmt 0 view .LVU210
	ldrb	r2, [sp, #8]	@ zero_extendqisi2
	.loc 1 676 37 view .LVU211
	strb	r5, [r3, #24]
	.loc 1 679 21 is_stmt 1 view .LVU212
	.loc 1 679 31 is_stmt 0 view .LVU213
	bic	r2, r2, #3
	and	r5, r5, #3
	orrs	r5, r5, r2
	.loc 1 680 28 view .LVU214
	add	r1, sp, #8
	movs	r2, #1
	add	r0, sp, #12
.LVL60:
	.loc 1 679 29 view .LVU215
	strb	r5, [sp, #8]
	.loc 1 680 21 is_stmt 1 view .LVU216
	.loc 1 680 28 is_stmt 0 view .LVU217
	bl	bmp2_set_regs
.LVL61:
.L34:
	.loc 1 690 5 is_stmt 1 view .LVU218
	.loc 1 691 1 is_stmt 0 view .LVU219
	add	sp, sp, #16
.LCFI11:
	@ sp needed
	pop	{r4, r5, r6, pc}
.LVL62:
.L40:
.LCFI12:
.LBB17:
.LBB16:
	.loc 1 706 13 is_stmt 1 view .LVU220
	.loc 1 707 13 view .LVU221
	.loc 1 707 27 is_stmt 0 view .LVU222
	ldrb	r2, [sp, #8]	@ zero_extendqisi2
	and	r2, r2, #3
	orr	r2, r2, #40
	b	.L46
.L39:
	.loc 1 710 13 is_stmt 1 view .LVU223
	.loc 1 711 13 view .LVU224
	.loc 1 711 27 is_stmt 0 view .LVU225
	ldrb	r2, [sp, #8]	@ zero_extendqisi2
	and	r2, r2, #3
	orr	r2, r2, #44
	b	.L46
.L38:
	.loc 1 714 13 is_stmt 1 view .LVU226
	.loc 1 715 13 view .LVU227
	.loc 1 715 27 is_stmt 0 view .LVU228
	ldrb	r2, [sp, #8]	@ zero_extendqisi2
	and	r2, r2, #3
	orr	r2, r2, #48
	b	.L46
.L36:
	.loc 1 718 13 is_stmt 1 view .LVU229
	.loc 1 719 13 view .LVU230
	.loc 1 719 27 is_stmt 0 view .LVU231
	ldrb	r2, [sp, #8]	@ zero_extendqisi2
	and	r2, r2, #3
	orr	r2, r2, #84
	b	.L46
.LVL63:
.L42:
	.loc 1 719 27 view .LVU232
.LBE16:
.LBE17:
	.loc 1 687 14 view .LVU233
	mov	r0, #-1
.LVL64:
	.loc 1 687 14 view .LVU234
	b	.L34
.LFE15:
	.size	conf_sensor, .-conf_sensor
	.section	.text.bmp2_get_config,"ax",%progbits
	.align	1
	.global	bmp2_get_config
	.syntax unified
	.thumb
	.thumb_func
	.fpu fpv4-sp-d16
	.type	bmp2_get_config, %function
bmp2_get_config:
.LVL65:
.LFB4:
	.loc 1 375 1 is_stmt 1 view -0
	@ args = 0, pretend = 0, frame = 8
	@ frame_needed = 0, uses_anonymous_args = 0
	.loc 1 376 5 view .LVU236
	.loc 1 377 5 view .LVU237
	.loc 1 375 1 is_stmt 0 view .LVU238
	push	{r0, r1, r4, lr}
.LCFI13:
	.loc 1 377 13 view .LVU239
	movs	r2, #0
	.loc 1 375 1 view .LVU240
	mov	r3, r1
	.loc 1 377 13 view .LVU241
	strh	r2, [sp, #4]	@ movhi
	.loc 1 379 5 is_stmt 1 view .LVU242
	.loc 1 379 8 is_stmt 0 view .LVU243
	mov	r4, r0
	cbz	r0, .L49
	.loc 1 381 9 is_stmt 1 view .LVU244
	.loc 1 381 16 is_stmt 0 view .LVU245
	movs	r2, #2
	add	r1, sp, #4
.LVL66:
	.loc 1 381 16 view .LVU246
	movs	r0, #244
.LVL67:
	.loc 1 381 16 view .LVU247
	bl	bmp2_get_regs
.LVL68:
	.loc 1 383 9 is_stmt 1 view .LVU248
	.loc 1 383 12 is_stmt 0 view .LVU249
	cbnz	r0, .L48
	.loc 1 385 13 is_stmt 1 view .LVU250
	.loc 1 385 29 is_stmt 0 view .LVU251
	ldrb	r3, [sp, #4]	@ zero_extendqisi2
	lsrs	r2, r3, #5
	.loc 1 386 29 view .LVU252
	ubfx	r3, r3, #2, #3
	.loc 1 386 27 view .LVU253
	strb	r3, [r4, #1]
	.loc 1 387 25 view .LVU254
	ldrb	r3, [sp, #5]	@ zero_extendqisi2
	.loc 1 385 27 view .LVU255
	strb	r2, [r4]
	.loc 1 386 13 is_stmt 1 view .LVU256
	.loc 1 387 13 view .LVU257
	.loc 1 387 25 is_stmt 0 view .LVU258
	lsrs	r2, r3, #5
	.loc 1 387 23 view .LVU259
	strb	r2, [r4, #2]
	.loc 1 388 13 is_stmt 1 view .LVU260
	.loc 1 388 28 is_stmt 0 view .LVU261
	ubfx	r2, r3, #2, #3
	.loc 1 389 30 view .LVU262
	and	r3, r3, #1
	.loc 1 388 26 view .LVU263
	strb	r2, [r4, #4]
	.loc 1 389 13 is_stmt 1 view .LVU264
	.loc 1 389 28 is_stmt 0 view .LVU265
	strb	r3, [r4, #5]
.LVL69:
.L48:
	.loc 1 397 5 is_stmt 1 view .LVU266
	.loc 1 398 1 is_stmt 0 view .LVU267
	add	sp, sp, #8
.LCFI14:
	@ sp needed
	pop	{r4, pc}
.LVL70:
.L49:
.LCFI15:
	.loc 1 394 14 view .LVU268
	mov	r0, #-1
.LVL71:
	.loc 1 394 14 view .LVU269
	b	.L48
.LFE4:
	.size	bmp2_get_config, .-bmp2_get_config
	.section	.text.bmp2_set_config,"ax",%progbits
	.align	1
	.global	bmp2_set_config
	.syntax unified
	.thumb
	.thumb_func
	.fpu fpv4-sp-d16
	.type	bmp2_set_config, %function
bmp2_set_config:
.LVL72:
.LFB5:
	.loc 1 406 1 is_stmt 1 view -0
	@ args = 0, pretend = 0, frame = 0
	@ frame_needed = 0, uses_anonymous_args = 0
	@ link register save eliminated.
	.loc 1 407 5 view .LVU271
	.loc 1 406 1 is_stmt 0 view .LVU272
	mov	r2, r1
	.loc 1 407 12 view .LVU273
	mov	r1, r0
.LVL73:
	.loc 1 407 12 view .LVU274
	movs	r0, #0
.LVL74:
	.loc 1 407 12 view .LVU275
	b	conf_sensor
.LVL75:
	.loc 1 407 12 view .LVU276
.LFE5:
	.size	bmp2_set_config, .-bmp2_set_config
	.section	.text.bmp2_get_status,"ax",%progbits
	.align	1
	.global	bmp2_get_status
	.syntax unified
	.thumb
	.thumb_func
	.fpu fpv4-sp-d16
	.type	bmp2_get_status, %function
bmp2_get_status:
.LVL76:
.LFB6:
	.loc 1 414 1 is_stmt 1 view -0
	@ args = 0, pretend = 0, frame = 8
	@ frame_needed = 0, uses_anonymous_args = 0
	.loc 1 415 5 view .LVU278
	.loc 1 416 5 view .LVU279
	.loc 1 418 5 view .LVU280
	.loc 1 414 1 is_stmt 0 view .LVU281
	push	{r0, r1, r4, lr}
.LCFI16:
	.loc 1 414 1 view .LVU282
	mov	r3, r1
	.loc 1 418 8 view .LVU283
	mov	r4, r0
	cbz	r0, .L53
	.loc 1 420 9 is_stmt 1 view .LVU284
	.loc 1 420 16 is_stmt 0 view .LVU285
	movs	r2, #1
	add	r1, sp, #7
.LVL77:
	.loc 1 420 16 view .LVU286
	movs	r0, #243
.LVL78:
	.loc 1 420 16 view .LVU287
	bl	bmp2_get_regs
.LVL79:
	.loc 1 422 9 is_stmt 1 view .LVU288
	.loc 1 422 12 is_stmt 0 view .LVU289
	cbnz	r0, .L52
	.loc 1 424 13 is_stmt 1 view .LVU290
	.loc 1 424 33 is_stmt 0 view .LVU291
	ldrb	r3, [sp, #7]	@ zero_extendqisi2
	ubfx	r2, r3, #3, #1
	.loc 1 425 33 view .LVU292
	and	r3, r3, #1
	.loc 1 424 31 view .LVU293
	strb	r2, [r4]
	.loc 1 425 13 is_stmt 1 view .LVU294
	.loc 1 425 31 is_stmt 0 view .LVU295
	strb	r3, [r4, #1]
.LVL80:
.L52:
	.loc 1 433 5 is_stmt 1 view .LVU296
	.loc 1 434 1 is_stmt 0 view .LVU297
	add	sp, sp, #8
.LCFI17:
	@ sp needed
	pop	{r4, pc}
.LVL81:
.L53:
.LCFI18:
	.loc 1 430 14 view .LVU298
	mov	r0, #-1
.LVL82:
	.loc 1 430 14 view .LVU299
	b	.L52
.LFE6:
	.size	bmp2_get_status, .-bmp2_get_status
	.section	.text.bmp2_get_power_mode,"ax",%progbits
	.align	1
	.global	bmp2_get_power_mode
	.syntax unified
	.thumb
	.thumb_func
	.fpu fpv4-sp-d16
	.type	bmp2_get_power_mode, %function
bmp2_get_power_mode:
.LVL83:
.LFB7:
	.loc 1 440 1 is_stmt 1 view -0
	@ args = 0, pretend = 0, frame = 8
	@ frame_needed = 0, uses_anonymous_args = 0
	.loc 1 441 5 view .LVU301
	.loc 1 442 5 view .LVU302
	.loc 1 444 5 view .LVU303
	.loc 1 440 1 is_stmt 0 view .LVU304
	push	{r0, r1, r2, r4, r5, lr}
.LCFI19:
	.loc 1 440 1 view .LVU305
	mov	r4, r1
	.loc 1 444 8 view .LVU306
	mov	r5, r0
	cbz	r0, .L56
	.loc 1 446 9 is_stmt 1 view .LVU307
	.loc 1 446 16 is_stmt 0 view .LVU308
	mov	r3, r1
	movs	r2, #1
	add	r1, sp, #7
.LVL84:
	.loc 1 446 16 view .LVU309
	movs	r0, #244
.LVL85:
	.loc 1 446 16 view .LVU310
	bl	bmp2_get_regs
.LVL86:
	.loc 1 448 9 is_stmt 1 view .LVU311
	.loc 1 448 17 is_stmt 0 view .LVU312
	ldrb	r3, [sp, #7]	@ zero_extendqisi2
	and	r3, r3, #3
	.loc 1 448 15 view .LVU313
	strb	r3, [r5]
	.loc 1 449 9 is_stmt 1 view .LVU314
	.loc 1 449 25 is_stmt 0 view .LVU315
	strb	r3, [r4, #24]
.LVL87:
.L55:
	.loc 1 456 5 is_stmt 1 view .LVU316
	.loc 1 457 1 is_stmt 0 view .LVU317
	add	sp, sp, #12
.LCFI20:
	@ sp needed
	pop	{r4, r5, pc}
.LVL88:
.L56:
.LCFI21:
	.loc 1 453 14 view .LVU318
	mov	r0, #-1
.LVL89:
	.loc 1 453 14 view .LVU319
	b	.L55
.LFE7:
	.size	bmp2_get_power_mode, .-bmp2_get_power_mode
	.section	.text.bmp2_set_power_mode,"ax",%progbits
	.align	1
	.global	bmp2_set_power_mode
	.syntax unified
	.thumb
	.thumb_func
	.fpu fpv4-sp-d16
	.type	bmp2_set_power_mode, %function
bmp2_set_power_mode:
.LVL90:
.LFB8:
	.loc 1 463 1 is_stmt 1 view -0
	@ args = 0, pretend = 0, frame = 0
	@ frame_needed = 0, uses_anonymous_args = 0
	@ link register save eliminated.
	.loc 1 464 5 view .LVU321
	.loc 1 466 5 view .LVU322
	.loc 1 466 12 is_stmt 0 view .LVU323
	b	conf_sensor
.LVL91:
	.loc 1 466 12 view .LVU324
.LFE8:
	.size	bmp2_set_power_mode, .-bmp2_set_power_mode
	.global	__aeabi_i2d
	.global	__aeabi_ui2d
	.global	__aeabi_dmul
	.global	__aeabi_dsub
	.global	__aeabi_dadd
	.global	__aeabi_d2iz
	.global	__aeabi_ddiv
	.global	__aeabi_dcmplt
	.global	__aeabi_dcmpgt
	.global	__aeabi_dcmpun
	.global	__aeabi_dcmpeq
	.section	.text.bmp2_compensate_data,"ax",%progbits
	.align	1
	.global	bmp2_compensate_data
	.syntax unified
	.thumb
	.thumb_func
	.fpu fpv4-sp-d16
	.type	bmp2_compensate_data, %function
bmp2_compensate_data:
.LVL92:
.LFB10:
	.loc 1 515 1 is_stmt 1 view -0
	@ args = 0, pretend = 0, frame = 16
	@ frame_needed = 0, uses_anonymous_args = 0
	.loc 1 516 5 view .LVU326
	.loc 1 518 5 view .LVU327
	.loc 1 515 1 is_stmt 0 view .LVU328
	push	{r4, r5, r6, r7, r8, r9, r10, fp, lr}
.LCFI22:
	sub	sp, sp, #20
.LCFI23:
	.loc 1 515 1 view .LVU329
	strd	r1, r0, [sp]
	.loc 1 518 12 view .LVU330
	mov	r0, r2
.LVL93:
	.loc 1 515 1 view .LVU331
	mov	r10, r2
	.loc 1 518 12 view .LVU332
	bl	null_ptr_check
.LVL94:
	.loc 1 520 5 is_stmt 1 view .LVU333
	.loc 1 520 8 is_stmt 0 view .LVU334
	mov	fp, r0
	cmp	r0, #0
	bne	.L67
	.loc 1 520 27 discriminator 1 view .LVU335
	ldr	r3, [sp, #4]
	cmp	r3, #0
	beq	.L67
	.loc 1 520 52 discriminator 2 view .LVU336
	ldr	r3, [sp]
	cmp	r3, #0
	beq	.L67
	.loc 1 523 9 is_stmt 1 view .LVU337
	.loc 1 524 9 view .LVU338
	.loc 1 524 29 is_stmt 0 view .LVU339
	ldr	r1, [sp]
	.loc 1 524 29 view .LVU340
	movs	r2, #0
.LVL95:
	.loc 1 524 29 view .LVU341
	movs	r3, #0
	strd	r2, [r1]
	.loc 1 526 9 is_stmt 1 view .LVU342
.LVL96:
.LBB22:
.LBI22:
	.loc 1 762 15 view .LVU343
.LBB23:
	.loc 1 766 5 view .LVU344
	.loc 1 767 5 view .LVU345
	.loc 1 768 5 view .LVU346
	.loc 1 770 5 view .LVU347
	.loc 1 770 14 is_stmt 0 view .LVU348
	ldr	r3, [sp, #4]
	ldr	r0, [r3]
.LVL97:
	.loc 1 770 14 view .LVU349
	bl	__aeabi_i2d
.LVL98:
	.loc 1 770 14 view .LVU350
	mov	r4, r0
	.loc 1 770 62 view .LVU351
	ldrh	r0, [r10, #28]
	.loc 1 770 14 view .LVU352
	mov	r5, r1
	.loc 1 770 62 view .LVU353
	bl	__aeabi_ui2d
.LVL99:
	.loc 1 773 47 view .LVU354
	ldr	r3, .L73+24
	.loc 1 770 62 view .LVU355
	mov	r6, r0
	mov	r7, r1
.LVL100:
	.loc 1 772 5 is_stmt 1 view .LVU356
	.loc 1 773 47 is_stmt 0 view .LVU357
	movs	r2, #0
	mov	r0, r4
	mov	r1, r5
	bl	__aeabi_dmul
.LVL101:
	.loc 1 773 95 view .LVU358
	ldr	r3, .L73+28
	.loc 1 773 47 view .LVU359
	mov	r8, r0
	mov	r9, r1
	.loc 1 773 95 view .LVU360
	movs	r2, #0
	mov	r0, r6
	mov	r1, r7
	bl	__aeabi_dmul
.LVL102:
	mov	r2, r0
	mov	r3, r1
	.loc 1 773 58 view .LVU361
	mov	r0, r8
	mov	r1, r9
	bl	__aeabi_dsub
.LVL103:
	.loc 1 770 49 view .LVU362
	ldr	r3, .L73+32
	.loc 1 773 58 view .LVU363
	mov	r8, r0
	mov	r9, r1
.LVL104:
	.loc 1 777 5 is_stmt 1 view .LVU364
	.loc 1 770 49 is_stmt 0 view .LVU365
	movs	r2, #0
	mov	r0, r4
	mov	r1, r5
	bl	__aeabi_dmul
.LVL105:
	.loc 1 770 96 view .LVU366
	ldr	r3, .L73+36
	.loc 1 770 49 view .LVU367
	mov	r4, r0
	.loc 1 770 49 view .LVU368
	mov	r5, r1
	.loc 1 770 96 view .LVU369
	movs	r2, #0
	mov	r0, r6
	mov	r1, r7
	bl	__aeabi_dmul
.LVL106:
	mov	r2, r0
	mov	r3, r1
	.loc 1 770 59 view .LVU370
	mov	r0, r4
	mov	r1, r5
	bl	__aeabi_dsub
.LVL107:
	mov	r4, r0
	.loc 1 771 13 view .LVU371
	ldrsh	r0, [r10, #30]
	.loc 1 770 59 view .LVU372
	mov	r5, r1
	.loc 1 771 13 view .LVU373
	bl	__aeabi_i2d
.LVL108:
	mov	r2, r0
	mov	r3, r1
	.loc 1 770 10 view .LVU374
	mov	r0, r4
	mov	r1, r5
	bl	__aeabi_dmul
.LVL109:
	mov	r4, r0
	.loc 1 775 10 view .LVU375
	ldrsh	r0, [r10, #32]
.LVL110:
	.loc 1 770 10 view .LVU376
	mov	r5, r1
	.loc 1 775 10 view .LVU377
	bl	__aeabi_i2d
.LVL111:
	.loc 1 773 105 view .LVU378
	mov	r2, r8
	.loc 1 775 10 view .LVU379
	mov	r6, r0
	mov	r7, r1
	.loc 1 773 105 view .LVU380
	mov	r3, r9
	mov	r0, r8
	mov	r1, r9
	bl	__aeabi_dmul
.LVL112:
	mov	r2, r0
	mov	r3, r1
	.loc 1 772 10 view .LVU381
	mov	r0, r6
	mov	r1, r7
	bl	__aeabi_dmul
.LVL113:
	mov	r2, r0
	mov	r3, r1
	.loc 1 777 47 view .LVU382
	mov	r0, r4
	mov	r1, r5
	bl	__aeabi_dadd
.LVL114:
	mov	r4, r0
	mov	r5, r1
	.loc 1 777 31 view .LVU383
	bl	__aeabi_d2iz
.LVL115:
	.loc 1 778 17 view .LVU384
	ldr	r3, .L73+40
	.loc 1 777 29 view .LVU385
	str	r0, [r10, #56]
	.loc 1 778 5 is_stmt 1 view .LVU386
	.loc 1 778 17 is_stmt 0 view .LVU387
	movs	r2, #0
	mov	r1, r5
	.loc 1 777 31 view .LVU388
	mov	r6, r0
	.loc 1 778 17 view .LVU389
	mov	r0, r4
	bl	__aeabi_ddiv
.LVL116:
	.loc 1 780 8 view .LVU390
	ldr	r3, .L73+44
	movs	r2, #0
	.loc 1 778 17 view .LVU391
	mov	r4, r0
	mov	r5, r1
.LVL117:
	.loc 1 780 5 is_stmt 1 view .LVU392
	.loc 1 780 8 is_stmt 0 view .LVU393
	bl	__aeabi_dcmplt
.LVL118:
	cmp	r0, #0
	bne	.L68
	.loc 1 786 5 is_stmt 1 view .LVU394
	.loc 1 786 8 is_stmt 0 view .LVU395
	ldr	r3, .L73+48
	movs	r2, #0
	mov	r0, r4
	mov	r1, r5
	bl	__aeabi_dcmpgt
.LVL119:
	cbz	r0, .L60
	.loc 1 788 21 view .LVU396
	ldr	r5, .L73+48
	movs	r4, #0
.LVL120:
	.loc 1 789 14 view .LVU397
	mov	fp, #2
.L60:
.LVL121:
	.loc 1 792 5 is_stmt 1 view .LVU398
	.loc 1 792 25 is_stmt 0 view .LVU399
	ldr	r3, [sp]
	strd	r4, [r3, #8]
	.loc 1 794 5 is_stmt 1 view .LVU400
.LVL122:
	.loc 1 794 5 is_stmt 0 view .LVU401
.LBE23:
.LBE22:
	.loc 1 528 9 is_stmt 1 view .LVU402
	.loc 1 528 12 is_stmt 0 view .LVU403
	cmp	fp, #0
	bne	.L59
.LVL123:
	.loc 1 530 13 is_stmt 1 view .LVU404
.LBB25:
.LBI25:
	.loc 1 801 15 view .LVU405
.LBB26:
	.loc 1 805 5 view .LVU406
	.loc 1 806 5 view .LVU407
	.loc 1 807 5 view .LVU408
	.loc 1 809 5 view .LVU409
	.loc 1 809 13 is_stmt 0 view .LVU410
	mov	r0, r6
	bl	__aeabi_i2d
.LVL124:
	.loc 1 809 46 view .LVU411
	ldr	r3, .L73+52
	movs	r2, #0
	bl	__aeabi_dmul
.LVL125:
	.loc 1 809 10 view .LVU412
	ldr	r3, .L73+56
	movs	r2, #0
	bl	__aeabi_dsub
.LVL126:
	mov	r4, r0
	mov	r5, r1
.LVL127:
	.loc 1 810 5 is_stmt 1 view .LVU413
	.loc 1 811 5 view .LVU414
	.loc 1 812 5 view .LVU415
	.loc 1 813 5 view .LVU416
	.loc 1 813 14 is_stmt 0 view .LVU417
	ldrsh	r0, [r10, #38]
	bl	__aeabi_i2d
.LVL128:
	.loc 1 813 47 view .LVU418
	mov	r2, r4
	mov	r3, r5
	bl	__aeabi_dmul
.LVL129:
	.loc 1 813 54 view .LVU419
	mov	r2, r4
	mov	r3, r5
	bl	__aeabi_dmul
.LVL130:
	.loc 1 813 61 view .LVU420
	movs	r2, #0
	mov	r3, #1052770304
	bl	__aeabi_dmul
.LVL131:
	mov	r6, r0
	.loc 1 813 75 view .LVU421
	ldrsh	r0, [r10, #36]
	.loc 1 813 61 view .LVU422
	mov	r7, r1
	.loc 1 813 75 view .LVU423
	bl	__aeabi_i2d
.LVL132:
	.loc 1 813 108 view .LVU424
	mov	r2, r4
	mov	r3, r5
	bl	__aeabi_dmul
.LVL133:
	mov	r2, r0
	mov	r3, r1
	.loc 1 813 72 view .LVU425
	mov	r0, r6
	mov	r1, r7
	bl	__aeabi_dadd
.LVL134:
	.loc 1 815 5 is_stmt 1 view .LVU426
	.loc 1 813 10 is_stmt 0 view .LVU427
	movs	r2, #0
	mov	r3, #1052770304
	bl	__aeabi_dmul
.LVL135:
	.loc 1 815 24 view .LVU428
	movs	r2, #0
	mov	r3, #1056964608
	bl	__aeabi_dmul
.LVL136:
	.loc 1 815 17 view .LVU429
	ldr	r3, .L73+60
	movs	r2, #0
	bl	__aeabi_dadd
.LVL137:
	mov	r2, r0
	mov	r3, r1
	.loc 1 815 38 view .LVU430
	ldrh	r0, [r10, #34]
	.loc 1 815 17 view .LVU431
	strd	r2, [sp, #8]
	.loc 1 815 38 view .LVU432
	bl	__aeabi_ui2d
.LVL138:
	.loc 1 815 10 view .LVU433
	ldrd	r2, [sp, #8]
	bl	__aeabi_dmul
.LVL139:
	.loc 1 817 8 view .LVU434
	movs	r2, #0
	movs	r3, #0
	.loc 1 815 10 view .LVU435
	mov	r8, r0
	mov	r9, r1
.LVL140:
	.loc 1 817 5 is_stmt 1 view .LVU436
	.loc 1 817 8 is_stmt 0 view .LVU437
	bl	__aeabi_dcmpun
.LVL141:
	cmp	r0, #0
	bne	.L59
	movs	r2, #0
	movs	r3, #0
	mov	r0, r8
	mov	r1, r9
	bl	__aeabi_dcmpeq
.LVL142:
	cmp	r0, #0
	bne	.L59
	.loc 1 819 9 is_stmt 1 view .LVU438
.LVL143:
	.loc 1 820 9 view .LVU439
	.loc 1 810 27 is_stmt 0 view .LVU440
	ldrsh	r0, [r10, #44]
	.loc 1 810 27 view .LVU441
	bl	__aeabi_i2d
.LVL144:
	.loc 1 810 17 view .LVU442
	mov	r2, r4
	.loc 1 810 27 view .LVU443
	mov	r6, r0
	mov	r7, r1
	.loc 1 810 17 view .LVU444
	mov	r3, r5
	mov	r0, r4
	mov	r1, r5
	bl	__aeabi_dmul
.LVL145:
	mov	r2, r0
	mov	r3, r1
	.loc 1 810 24 view .LVU445
	mov	r0, r6
	mov	r1, r7
	bl	__aeabi_dmul
.LVL146:
	.loc 1 810 10 view .LVU446
	movs	r2, #0
	mov	r3, #1056964608
	bl	__aeabi_dmul
.LVL147:
	mov	r6, r0
	.loc 1 811 27 view .LVU447
	ldrsh	r0, [r10, #42]
	.loc 1 810 10 view .LVU448
	mov	r7, r1
	.loc 1 811 27 view .LVU449
	bl	__aeabi_i2d
.LVL148:
	.loc 1 811 24 view .LVU450
	mov	r2, r4
	mov	r3, r5
	bl	__aeabi_dmul
.LVL149:
	mov	r2, r0
	mov	r3, r1
	.loc 1 811 61 view .LVU451
	bl	__aeabi_dadd
.LVL150:
	.loc 1 811 10 view .LVU452
	mov	r2, r6
	mov	r3, r7
	bl	__aeabi_dadd
.LVL151:
	.loc 1 812 18 view .LVU453
	movs	r2, #0
	ldr	r3, .L73+64
	bl	__aeabi_dmul
.LVL152:
	.loc 1 819 32 view .LVU454
	ldr	r3, [sp, #4]
	.loc 1 812 18 view .LVU455
	mov	r4, r0
	.loc 1 819 32 view .LVU456
	ldr	r0, [r3, #4]
.LVL153:
	.loc 1 812 18 view .LVU457
	mov	r5, r1
	.loc 1 819 32 view .LVU458
	bl	__aeabi_ui2d
.LVL154:
	.loc 1 819 32 view .LVU459
	mov	r2, r0
	mov	r3, r1
	.loc 1 819 18 view .LVU460
	movs	r0, #0
	ldr	r1, .L73+68
	bl	__aeabi_dsub
.LVL155:
	mov	r6, r0
	.loc 1 812 29 view .LVU461
	ldrsh	r0, [r10, #40]
	.loc 1 819 18 view .LVU462
	mov	r7, r1
	.loc 1 812 29 view .LVU463
	bl	__aeabi_i2d
.LVL156:
	.loc 1 812 63 view .LVU464
	ldr	r3, .L73+72
	movs	r2, #0
	bl	__aeabi_dmul
.LVL157:
	.loc 1 812 10 view .LVU465
	mov	r2, r4
	mov	r3, r5
	bl	__aeabi_dadd
.LVL158:
	.loc 1 820 38 view .LVU466
	ldr	r3, .L73+76
	movs	r2, #0
	bl	__aeabi_dmul
.LVL159:
	mov	r2, r0
	mov	r3, r1
	.loc 1 820 30 view .LVU467
	mov	r0, r6
	mov	r1, r7
	bl	__aeabi_dsub
.LVL160:
	.loc 1 820 49 view .LVU468
	adr	r3, .L73
	ldrd	r2, [r3]
	bl	__aeabi_dmul
.LVL161:
	.loc 1 820 18 view .LVU469
	mov	r2, r8
	mov	r3, r9
	bl	__aeabi_ddiv
.LVL162:
	mov	r4, r0
	mov	r5, r1
.LVL163:
	.loc 1 821 9 is_stmt 1 view .LVU470
	.loc 1 822 9 view .LVU471
	.loc 1 824 9 view .LVU472
	.loc 1 821 17 is_stmt 0 view .LVU473
	ldrsh	r0, [r10, #50]
	bl	__aeabi_i2d
.LVL164:
	.loc 1 821 50 view .LVU474
	mov	r2, r4
	mov	r3, r5
	bl	__aeabi_dmul
.LVL165:
	.loc 1 821 61 view .LVU475
	mov	r2, r4
	mov	r3, r5
	bl	__aeabi_dmul
.LVL166:
	.loc 1 821 14 view .LVU476
	movs	r2, #0
	mov	r3, #1040187392
	bl	__aeabi_dmul
.LVL167:
	mov	r6, r0
	.loc 1 822 28 view .LVU477
	ldrsh	r0, [r10, #48]
	.loc 1 821 14 view .LVU478
	mov	r7, r1
	.loc 1 822 28 view .LVU479
	bl	__aeabi_i2d
.LVL168:
	.loc 1 822 25 view .LVU480
	mov	r2, r4
	mov	r3, r5
	bl	__aeabi_dmul
.LVL169:
	.loc 1 822 14 view .LVU481
	movs	r2, #0
	mov	r3, #1056964608
	bl	__aeabi_dmul
.LVL170:
	mov	r2, r0
	mov	r3, r1
	.loc 1 824 37 view .LVU482
	mov	r0, r6
	mov	r1, r7
	bl	__aeabi_dadd
.LVL171:
	mov	r6, r0
	.loc 1 824 47 view .LVU483
	ldrsh	r0, [r10, #46]
	.loc 1 824 37 view .LVU484
	mov	r7, r1
	.loc 1 824 47 view .LVU485
	bl	__aeabi_i2d
.LVL172:
	mov	r2, r0
	mov	r3, r1
	.loc 1 824 44 view .LVU486
	mov	r0, r6
	mov	r1, r7
	bl	__aeabi_dadd
.LVL173:
	.loc 1 824 81 view .LVU487
	ldr	r3, .L73+80
	movs	r2, #0
	bl	__aeabi_dmul
.LVL174:
	mov	r2, r0
	mov	r3, r1
	.loc 1 824 18 view .LVU488
	mov	r0, r4
	mov	r1, r5
	bl	__aeabi_dadd
.LVL175:
	.loc 1 826 12 view .LVU489
	adr	r3, .L73+8
	ldrd	r2, [r3]
	.loc 1 824 18 view .LVU490
	mov	r4, r0
.LVL176:
	.loc 1 824 18 view .LVU491
	mov	r5, r1
.LVL177:
	.loc 1 826 9 is_stmt 1 view .LVU492
	.loc 1 826 12 is_stmt 0 view .LVU493
	bl	__aeabi_dcmplt
.LVL178:
	cbnz	r0, .L69
	.loc 1 832 9 is_stmt 1 view .LVU494
	.loc 1 832 12 is_stmt 0 view .LVU495
	adr	r3, .L73+16
	ldrd	r2, [r3]
	mov	r0, r4
	mov	r1, r5
	bl	__aeabi_dcmpgt
.LVL179:
	cbz	r0, .L63
	.loc 1 834 22 view .LVU496
	adr	r5, .L73+16
	ldrd	r4, [r5]
.LVL180:
	.loc 1 835 18 view .LVU497
	mov	fp, #4
.L63:
.LVL181:
	.loc 1 838 9 is_stmt 1 view .LVU498
	.loc 1 838 26 is_stmt 0 view .LVU499
	ldr	r3, [sp]
	strd	r4, [r3]
.LVL182:
.L59:
	.loc 1 838 26 view .LVU500
.LBE26:
.LBE25:
	.loc 1 538 5 is_stmt 1 view .LVU501
	.loc 1 539 1 is_stmt 0 view .LVU502
	mov	r0, fp
	add	sp, sp, #20
.LCFI24:
.LVL183:
	.loc 1 539 1 view .LVU503
	@ sp needed
	pop	{r4, r5, r6, r7, r8, r9, r10, fp, pc}
.LVL184:
.L68:
.LCFI25:
.LBB28:
.LBB24:
	.loc 1 782 21 view .LVU504
	ldr	r5, .L73+44
	movs	r4, #0
.LVL185:
	.loc 1 783 14 view .LVU505
	mov	fp, #1
	b	.L60
.LVL186:
.L69:
	.loc 1 783 14 view .LVU506
.LBE24:
.LBE28:
.LBB29:
.LBB27:
	.loc 1 828 22 view .LVU507
	adr	r5, .L73+8
	ldrd	r4, [r5]
.LVL187:
	.loc 1 829 18 view .LVU508
	mov	fp, #3
	b	.L63
.LVL188:
.L67:
	.loc 1 829 18 view .LVU509
.LBE27:
.LBE29:
	.loc 1 535 14 view .LVU510
	mov	fp, #-1
	b	.L59
.L74:
	.align	3
.L73:
	.word	0
	.word	1085827584
	.word	0
	.word	1088244736
	.word	0
	.word	1090181888
	.word	1054867456
	.word	1059061760
	.word	1058013184
	.word	1062207488
	.word	1085538304
	.word	-1069285376
	.word	1079328768
	.word	1071644672
	.word	1089421312
	.word	1072693248
	.word	1070596096
	.word	1093664768
	.word	1089470464
	.word	1060110336
	.word	1068498944
.LFE10:
	.size	bmp2_compensate_data, .-bmp2_compensate_data
	.section	.text.bmp2_get_sensor_data,"ax",%progbits
	.align	1
	.global	bmp2_get_sensor_data
	.syntax unified
	.thumb
	.thumb_func
	.fpu fpv4-sp-d16
	.type	bmp2_get_sensor_data, %function
bmp2_get_sensor_data:
.LVL189:
.LFB9:
	.loc 1 477 1 is_stmt 1 view -0
	@ args = 0, pretend = 0, frame = 16
	@ frame_needed = 0, uses_anonymous_args = 0
	.loc 1 478 5 view .LVU512
	.loc 1 479 5 view .LVU513
	.loc 1 477 1 is_stmt 0 view .LVU514
	push	{r0, r1, r2, r3, r4, r5, r6, lr}
.LCFI26:
	.loc 1 479 13 view .LVU515
	movs	r3, #0
	.loc 1 480 29 view .LVU516
	strd	r3, r3, [sp, #8]
	.loc 1 477 1 view .LVU517
	mov	r6, r1
	.loc 1 479 13 view .LVU518
	str	r3, [sp]
	strh	r3, [sp, #4]	@ movhi
	.loc 1 480 5 is_stmt 1 view .LVU519
	.loc 1 482 5 view .LVU520
	.loc 1 482 8 is_stmt 0 view .LVU521
	mov	r5, r0
	cbz	r0, .L79
	.loc 1 484 9 is_stmt 1 view .LVU522
	.loc 1 484 16 is_stmt 0 view .LVU523
	mov	r3, r1
	movs	r2, #6
	mov	r1, sp
.LVL190:
	.loc 1 484 16 view .LVU524
	movs	r0, #247
.LVL191:
	.loc 1 484 16 view .LVU525
	bl	bmp2_get_regs
.LVL192:
	.loc 1 486 9 is_stmt 1 view .LVU526
	.loc 1 486 12 is_stmt 0 view .LVU527
	cbnz	r0, .L82
	.loc 1 489 13 is_stmt 1 view .LVU528
.LVL193:
.LBB34:
.LBI34:
	.loc 1 730 15 view .LVU529
.LBB35:
	.loc 1 732 5 view .LVU530
	.loc 1 735 5 view .LVU531
	.loc 1 736 5 view .LVU532
	.loc 1 737 5 view .LVU533
	.loc 1 740 5 view .LVU534
	.loc 1 741 5 view .LVU535
	.loc 1 742 5 view .LVU536
	.loc 1 743 5 view .LVU537
	.loc 1 741 16 is_stmt 0 view .LVU538
	ldrb	r4, [sp, #1]	@ zero_extendqisi2
	.loc 1 740 16 view .LVU539
	ldrb	r3, [sp]	@ zero_extendqisi2
	.loc 1 747 16 view .LVU540
	ldrb	r2, [sp, #4]	@ zero_extendqisi2
	.loc 1 741 14 view .LVU541
	lsls	r4, r4, #4
.LVL194:
	.loc 1 743 38 view .LVU542
	orr	r4, r4, r3, lsl #12
.LVL195:
	.loc 1 742 39 view .LVU543
	ldrb	r3, [sp, #2]	@ zero_extendqisi2
	.loc 1 743 49 view .LVU544
	orr	r4, r4, r3, lsr #4
	.loc 1 746 16 view .LVU545
	ldrb	r3, [sp, #3]	@ zero_extendqisi2
	.loc 1 743 27 view .LVU546
	str	r4, [sp, #12]
	.loc 1 746 5 is_stmt 1 view .LVU547
.LVL196:
	.loc 1 747 5 view .LVU548
	.loc 1 748 5 view .LVU549
	.loc 1 749 5 view .LVU550
	.loc 1 747 37 is_stmt 0 view .LVU551
	lsls	r2, r2, #4
.LVL197:
	.loc 1 749 51 view .LVU552
	orr	r2, r2, r3, lsl #12
.LVL198:
	.loc 1 748 38 view .LVU553
	ldrb	r3, [sp, #5]	@ zero_extendqisi2
	.loc 1 749 62 view .LVU554
	orr	r2, r2, r3, lsr #4
.LBB36:
.LBB37:
	.loc 1 1009 8 view .LVU555
	ldr	r3, .L84
.LBE37:
.LBE36:
	.loc 1 749 30 view .LVU556
	str	r2, [sp, #8]
	.loc 1 751 5 is_stmt 1 view .LVU557
.LVL199:
.LBB41:
.LBI36:
	.loc 1 1004 15 view .LVU558
.LBB38:
	.loc 1 1006 5 view .LVU559
	.loc 1 1009 5 view .LVU560
	.loc 1 1009 8 is_stmt 0 view .LVU561
	cmp	r4, r3
	bls	.L77
	.loc 1 1009 74 view .LVU562
	cmp	r2, r3
	.loc 1 1024 14 view .LVU563
	ite	ls
	mvnls	r0, #5
.LVL200:
	.loc 1 1024 14 view .LVU564
	mvnhi	r0, #6
.LVL201:
.L82:
	.loc 1 1024 14 view .LVU565
.LBE38:
.LBE41:
.LBE35:
.LBE34:
	.loc 1 506 1 view .LVU566
	add	sp, sp, #16
.LCFI27:
	@ sp needed
	pop	{r4, r5, r6, pc}
.LVL202:
.L83:
.LCFI28:
.LBB46:
.LBB44:
.LBB42:
.LBB39:
	.loc 1 1021 10 is_stmt 1 view .LVU567
	.loc 1 1028 9 view .LVU568
	.loc 1 1031 5 view .LVU569
	.loc 1 1031 5 is_stmt 0 view .LVU570
.LBE39:
.LBE42:
	.loc 1 753 5 is_stmt 1 view .LVU571
	.loc 1 753 5 is_stmt 0 view .LVU572
.LBE44:
.LBE46:
	.loc 1 491 13 is_stmt 1 view .LVU573
	.loc 1 496 17 view .LVU574
	.loc 1 496 24 is_stmt 0 view .LVU575
	mov	r2, r6
	mov	r1, r5
	add	r0, sp, #8
	bl	bmp2_compensate_data
.LVL203:
	.loc 1 496 24 view .LVU576
	b	.L82
.LVL204:
.L79:
	.loc 1 502 14 view .LVU577
	mov	r0, #-1
.LVL205:
	.loc 1 502 14 view .LVU578
	b	.L82
.LVL206:
.L77:
.LBB47:
.LBB45:
.LBB43:
.LBB40:
	.loc 1 1015 10 is_stmt 1 view .LVU579
	.loc 1 1015 13 is_stmt 0 view .LVU580
	cmp	r2, r3
	bls	.L83
	.loc 1 1018 14 view .LVU581
	mvn	r0, #4
.LVL207:
	.loc 1 1018 14 view .LVU582
.LBE40:
.LBE43:
.LBE45:
.LBE47:
	.loc 1 505 5 is_stmt 1 view .LVU583
	.loc 1 505 12 is_stmt 0 view .LVU584
	b	.L82
.L85:
	.align	2
.L84:
	.word	1048560
.LFE9:
	.size	bmp2_get_sensor_data, .-bmp2_get_sensor_data
	.section	.text.bmp2_compute_meas_time,"ax",%progbits
	.align	1
	.global	bmp2_compute_meas_time
	.syntax unified
	.thumb
	.thumb_func
	.fpu fpv4-sp-d16
	.type	bmp2_compute_meas_time, %function
bmp2_compute_meas_time:
.LVL208:
.LFB11:
	.loc 1 546 1 is_stmt 1 view -0
	@ args = 0, pretend = 0, frame = 56
	@ frame_needed = 0, uses_anonymous_args = 0
	.loc 1 547 5 view .LVU586
	.loc 1 550 5 view .LVU587
	.loc 1 546 1 is_stmt 0 view .LVU588
	push	{r4, r5, r6, r7, r8, lr}
.LCFI29:
	.loc 1 550 14 view .LVU589
	ldr	r4, .L91
	.loc 1 546 1 view .LVU590
	mov	r8, r2
	mov	r7, r0
	mov	r6, r1
	.loc 1 550 14 view .LVU591
	ldmia	r4!, {r0, r1, r2, r3}
.LVL209:
	.loc 1 546 1 view .LVU592
	sub	sp, sp, #56
.LCFI30:
	.loc 1 550 14 view .LVU593
	add	r5, sp, #4
	stmia	r5!, {r0, r1, r2, r3}
	ldr	r3, [r4], #4
	str	r3, [r5]
	.loc 1 551 5 is_stmt 1 view .LVU594
	.loc 1 551 14 is_stmt 0 view .LVU595
	ldmia	r4!, {r0, r1, r2, r3}
	add	r5, sp, #24
	stmia	r5!, {r0, r1, r2, r3}
	ldm	r4, {r0, r1, r2, r3}
	stm	r5, {r0, r1, r2, r3}
	.loc 1 553 5 is_stmt 1 view .LVU596
	.loc 1 553 12 is_stmt 0 view .LVU597
	mov	r0, r8
	bl	null_ptr_check
.LVL210:
	.loc 1 555 5 is_stmt 1 view .LVU598
	.loc 1 555 8 is_stmt 0 view .LVU599
	cbnz	r0, .L90
	.loc 1 555 27 discriminator 1 view .LVU600
	cbz	r6, .L90
	.loc 1 557 9 is_stmt 1 view .LVU601
	ldrb	r3, [r6, #3]	@ zero_extendqisi2
	add	r2, sp, #56
	add	r3, r2, r3, lsl #2
	ldr	r1, [r3, #-52]
	.loc 1 557 12 is_stmt 0 view .LVU602
	ldrb	r3, [r8, #24]	@ zero_extendqisi2
	cmp	r3, #3
	.loc 1 560 13 is_stmt 1 view .LVU603
	.loc 1 560 83 is_stmt 0 view .LVU604
	itett	eq
	ldrbeq	r2, [r6, #2]	@ zero_extendqisi2
	.loc 1 565 30 view .LVU605
	strne	r1, [r7]
	.loc 1 560 78 view .LVU606
	addeq	r3, sp, #56
	addeq	r2, r3, r2, lsl #2
	.loc 1 560 64 view .LVU607
	ittt	eq
	ldreq	r3, [r2, #-32]
	addeq	r3, r3, r1
	.loc 1 560 30 view .LVU608
	streq	r3, [r7]
	.loc 1 565 13 is_stmt 1 view .LVU609
.LVL211:
.L87:
	.loc 1 573 5 view .LVU610
	.loc 1 574 1 is_stmt 0 view .LVU611
	add	sp, sp, #56
.LCFI31:
	@ sp needed
	pop	{r4, r5, r6, r7, r8, pc}
.LVL212:
.L90:
.LCFI32:
	.loc 1 570 14 view .LVU612
	mov	r0, #-1
.LVL213:
	.loc 1 570 14 view .LVU613
	b	.L87
.L92:
	.align	2
.L91:
	.word	.LANCHOR0
.LFE11:
	.size	bmp2_compute_meas_time, .-bmp2_compute_meas_time
	.section .rodata
	.align	2
	.set	.LANCHOR0,. + 0
.LC0:
	.word	5500
	.word	7500
	.word	11500
	.word	19500
	.word	37500
.LC1:
	.word	500
	.word	62500
	.word	125000
	.word	250000
	.word	500000
	.word	1000000
	.word	2000000
	.word	4000000
	.section	.debug_frame,"",%progbits
.Lframe0:
	.4byte	.LECIE0-.LSCIE0
.LSCIE0:
	.4byte	0xffffffff
	.byte	0x3
	.ascii	"\000"
	.uleb128 0x1
	.sleb128 -4
	.uleb128 0xe
	.byte	0xc
	.uleb128 0xd
	.uleb128 0
	.align	2
.LECIE0:
.LSFDE0:
	.4byte	.LEFDE0-.LASFDE0
.LASFDE0:
	.4byte	.Lframe0
	.4byte	.LFB12
	.4byte	.LFE12-.LFB12
	.align	2
.LEFDE0:
.LSFDE2:
	.4byte	.LEFDE2-.LASFDE2
.LASFDE2:
	.4byte	.Lframe0
	.4byte	.LFB1
	.4byte	.LFE1-.LFB1
	.byte	0x4
	.4byte	.LCFI0-.LFB1
	.byte	0xe
	.uleb128 0x10
	.byte	0x84
	.uleb128 0x4
	.byte	0x85
	.uleb128 0x3
	.byte	0x86
	.uleb128 0x2
	.byte	0x8e
	.uleb128 0x1
	.align	2
.LEFDE2:
.LSFDE4:
	.4byte	.LEFDE4-.LASFDE4
.LASFDE4:
	.4byte	.Lframe0
	.4byte	.LFB0
	.4byte	.LFE0-.LFB0
	.byte	0x4
	.4byte	.LCFI1-.LFB0
	.byte	0xe
	.uleb128 0x8
	.byte	0x84
	.uleb128 0x2
	.byte	0x8e
	.uleb128 0x1
	.byte	0x4
	.4byte	.LCFI2-.LCFI1
	.byte	0xe
	.uleb128 0x28
	.byte	0x4
	.4byte	.LCFI3-.LCFI2
	.byte	0xa
	.byte	0xe
	.uleb128 0x8
	.byte	0x4
	.4byte	.LCFI4-.LCFI3
	.byte	0xb
	.align	2
.LEFDE4:
.LSFDE6:
	.4byte	.LEFDE6-.LASFDE6
.LASFDE6:
	.4byte	.Lframe0
	.4byte	.LFB2
	.4byte	.LFE2-.LFB2
	.byte	0x4
	.4byte	.LCFI5-.LFB2
	.byte	0xe
	.uleb128 0x20
	.byte	0x84
	.uleb128 0x5
	.byte	0x85
	.uleb128 0x4
	.byte	0x86
	.uleb128 0x3
	.byte	0x87
	.uleb128 0x2
	.byte	0x8e
	.uleb128 0x1
	.byte	0x4
	.4byte	.LCFI6-.LCFI5
	.byte	0xa
	.byte	0xe
	.uleb128 0x14
	.byte	0x4
	.4byte	.LCFI7-.LCFI6
	.byte	0xb
	.align	2
.LEFDE6:
.LSFDE8:
	.4byte	.LEFDE8-.LASFDE8
.LASFDE8:
	.4byte	.Lframe0
	.4byte	.LFB3
	.4byte	.LFE3-.LFB3
	.byte	0x4
	.4byte	.LCFI8-.LFB3
	.byte	0xe
	.uleb128 0x10
	.byte	0x8e
	.uleb128 0x1
	.byte	0x4
	.4byte	.LCFI9-.LCFI8
	.byte	0xe
	.uleb128 0x4
	.align	2
.LEFDE8:
.LSFDE10:
	.4byte	.LEFDE10-.LASFDE10
.LASFDE10:
	.4byte	.Lframe0
	.4byte	.LFB15
	.4byte	.LFE15-.LFB15
	.byte	0x4
	.4byte	.LCFI10-.LFB15
	.byte	0xe
	.uleb128 0x20
	.byte	0x84
	.uleb128 0x4
	.byte	0x85
	.uleb128 0x3
	.byte	0x86
	.uleb128 0x2
	.byte	0x8e
	.uleb128 0x1
	.byte	0x4
	.4byte	.LCFI11-.LCFI10
	.byte	0xa
	.byte	0xe
	.uleb128 0x10
	.byte	0x4
	.4byte	.LCFI12-.LCFI11
	.byte	0xb
	.align	2
.LEFDE10:
.LSFDE12:
	.4byte	.LEFDE12-.LASFDE12
.LASFDE12:
	.4byte	.Lframe0
	.4byte	.LFB4
	.4byte	.LFE4-.LFB4
	.byte	0x4
	.4byte	.LCFI13-.LFB4
	.byte	0xe
	.uleb128 0x10
	.byte	0x84
	.uleb128 0x2
	.byte	0x8e
	.uleb128 0x1
	.byte	0x4
	.4byte	.LCFI14-.LCFI13
	.byte	0xa
	.byte	0xe
	.uleb128 0x8
	.byte	0x4
	.4byte	.LCFI15-.LCFI14
	.byte	0xb
	.align	2
.LEFDE12:
.LSFDE14:
	.4byte	.LEFDE14-.LASFDE14
.LASFDE14:
	.4byte	.Lframe0
	.4byte	.LFB5
	.4byte	.LFE5-.LFB5
	.align	2
.LEFDE14:
.LSFDE16:
	.4byte	.LEFDE16-.LASFDE16
.LASFDE16:
	.4byte	.Lframe0
	.4byte	.LFB6
	.4byte	.LFE6-.LFB6
	.byte	0x4
	.4byte	.LCFI16-.LFB6
	.byte	0xe
	.uleb128 0x10
	.byte	0x84
	.uleb128 0x2
	.byte	0x8e
	.uleb128 0x1
	.byte	0x4
	.4byte	.LCFI17-.LCFI16
	.byte	0xa
	.byte	0xe
	.uleb128 0x8
	.byte	0x4
	.4byte	.LCFI18-.LCFI17
	.byte	0xb
	.align	2
.LEFDE16:
.LSFDE18:
	.4byte	.LEFDE18-.LASFDE18
.LASFDE18:
	.4byte	.Lframe0
	.4byte	.LFB7
	.4byte	.LFE7-.LFB7
	.byte	0x4
	.4byte	.LCFI19-.LFB7
	.byte	0xe
	.uleb128 0x18
	.byte	0x84
	.uleb128 0x3
	.byte	0x85
	.uleb128 0x2
	.byte	0x8e
	.uleb128 0x1
	.byte	0x4
	.4byte	.LCFI20-.LCFI19
	.byte	0xa
	.byte	0xe
	.uleb128 0xc
	.byte	0x4
	.4byte	.LCFI21-.LCFI20
	.byte	0xb
	.align	2
.LEFDE18:
.LSFDE20:
	.4byte	.LEFDE20-.LASFDE20
.LASFDE20:
	.4byte	.Lframe0
	.4byte	.LFB8
	.4byte	.LFE8-.LFB8
	.align	2
.LEFDE20:
.LSFDE22:
	.4byte	.LEFDE22-.LASFDE22
.LASFDE22:
	.4byte	.Lframe0
	.4byte	.LFB10
	.4byte	.LFE10-.LFB10
	.byte	0x4
	.4byte	.LCFI22-.LFB10
	.byte	0xe
	.uleb128 0x24
	.byte	0x84
	.uleb128 0x9
	.byte	0x85
	.uleb128 0x8
	.byte	0x86
	.uleb128 0x7
	.byte	0x87
	.uleb128 0x6
	.byte	0x88
	.uleb128 0x5
	.byte	0x89
	.uleb128 0x4
	.byte	0x8a
	.uleb128 0x3
	.byte	0x8b
	.uleb128 0x2
	.byte	0x8e
	.uleb128 0x1
	.byte	0x4
	.4byte	.LCFI23-.LCFI22
	.byte	0xe
	.uleb128 0x38
	.byte	0x4
	.4byte	.LCFI24-.LCFI23
	.byte	0xa
	.byte	0xe
	.uleb128 0x24
	.byte	0x4
	.4byte	.LCFI25-.LCFI24
	.byte	0xb
	.align	2
.LEFDE22:
.LSFDE24:
	.4byte	.LEFDE24-.LASFDE24
.LASFDE24:
	.4byte	.Lframe0
	.4byte	.LFB9
	.4byte	.LFE9-.LFB9
	.byte	0x4
	.4byte	.LCFI26-.LFB9
	.byte	0xe
	.uleb128 0x20
	.byte	0x84
	.uleb128 0x4
	.byte	0x85
	.uleb128 0x3
	.byte	0x86
	.uleb128 0x2
	.byte	0x8e
	.uleb128 0x1
	.byte	0x4
	.4byte	.LCFI27-.LCFI26
	.byte	0xa
	.byte	0xe
	.uleb128 0x10
	.byte	0x4
	.4byte	.LCFI28-.LCFI27
	.byte	0xb
	.align	2
.LEFDE24:
.LSFDE26:
	.4byte	.LEFDE26-.LASFDE26
.LASFDE26:
	.4byte	.Lframe0
	.4byte	.LFB11
	.4byte	.LFE11-.LFB11
	.byte	0x4
	.4byte	.LCFI29-.LFB11
	.byte	0xe
	.uleb128 0x18
	.byte	0x84
	.uleb128 0x6
	.byte	0x85
	.uleb128 0x5
	.byte	0x86
	.uleb128 0x4
	.byte	0x87
	.uleb128 0x3
	.byte	0x88
	.uleb128 0x2
	.byte	0x8e
	.uleb128 0x1
	.byte	0x4
	.4byte	.LCFI30-.LCFI29
	.byte	0xe
	.uleb128 0x50
	.byte	0x4
	.4byte	.LCFI31-.LCFI30
	.byte	0xa
	.byte	0xe
	.uleb128 0x18
	.byte	0x4
	.4byte	.LCFI32-.LCFI31
	.byte	0xb
	.align	2
.LEFDE26:
	.text
.Letext0:
	.file 2 "C:\\Users\\joeyp\\Desktop\\Engineering\\Cuitt\\Development\\nRF5_SDK_17.0.0_9d13099\\examples\\ble_peripheral\\ble_app_buttonless_dfu\\pca10040\\s132\\ses\\bmp2_defs.h"
	.file 3 "C:/Program Files/SEGGER/SEGGER Embedded Studio for ARM 4.52b/include/stdint.h"